
rand:     file format elf32-littleriscv


Disassembly of section .init:

00000000 <_start>:
   0:	10001197          	auipc	gp,0x10001
   4:	80018193          	addi	gp,gp,-2048 # 10000800 <__global_pointer$>
   8:	10004117          	auipc	sp,0x10004
   c:	ff810113          	addi	sp,sp,-8 # 10004000 <__freertos_irq_stack_top>
  10:	00000d13          	li	s10,0
  14:	00000d93          	li	s11,0
  18:	25000513          	li	a0,592
  1c:	10000597          	auipc	a1,0x10000
  20:	fe458593          	addi	a1,a1,-28 # 10000000 <_data>
  24:	10000617          	auipc	a2,0x10000
  28:	fdc60613          	addi	a2,a2,-36 # 10000000 <_data>
  2c:	00c5fc63          	bgeu	a1,a2,44 <_start+0x44>
  30:	00052283          	lw	t0,0(a0)
  34:	0055a023          	sw	t0,0(a1)
  38:	00450513          	addi	a0,a0,4
  3c:	00458593          	addi	a1,a1,4
  40:	fec5e8e3          	bltu	a1,a2,30 <_start+0x30>
  44:	10000517          	auipc	a0,0x10000
  48:	fbc50513          	addi	a0,a0,-68 # 10000000 <_data>
  4c:	80818593          	addi	a1,gp,-2040 # 10000008 <_end>
  50:	00b57863          	bgeu	a0,a1,60 <_start+0x60>
  54:	00052023          	sw	zero,0(a0)
  58:	00450513          	addi	a0,a0,4
  5c:	feb56ce3          	bltu	a0,a1,54 <_start+0x54>
  60:	1d4000ef          	jal	ra,234 <_init>
  64:	00c000ef          	jal	ra,70 <main>
  68:	00100d13          	li	s10,1

0000006c <loop>:
  6c:	0000006f          	j	6c <loop>

Disassembly of section .text:

00000070 <main>:
  70:	100007b7          	lui	a5,0x10000
  74:	00078713          	mv	a4,a5
  78:	00070023          	sb	zero,0(a4)
  7c:	37593737          	lui	a4,0x37593
  80:	21a70713          	addi	a4,a4,538 # 3759321a <__freertos_irq_stack_top+0x2758f21a>
  84:	80e1a223          	sw	a4,-2044(gp) # 10000004 <seed>
  88:	89fca737          	lui	a4,0x89fca
  8c:	200026b7          	lui	a3,0x20002
  90:	03470713          	addi	a4,a4,52 # 89fca034 <__freertos_irq_stack_top+0x79fc6034>
  94:	40e6a223          	sw	a4,1028(a3) # 20002404 <__freertos_irq_stack_top+0xfffe404>
  98:	00300713          	li	a4,3
  9c:	40e6a023          	sw	a4,1024(a3)
  a0:	32000613          	li	a2,800
  a4:	20000737          	lui	a4,0x20000
  a8:	10300693          	li	a3,259
  ac:	40c72423          	sw	a2,1032(a4) # 20000408 <__freertos_irq_stack_top+0xfffc408>
  b0:	40d72023          	sw	a3,1024(a4)
  b4:	00078793          	mv	a5,a5
  b8:	01400693          	li	a3,20
  bc:	0007c703          	lbu	a4,0(a5) # 10000000 <_data>
  c0:	fee69ee3          	bne	a3,a4,bc <main+0x4c>
  c4:	20000737          	lui	a4,0x20000
  c8:	40072023          	sw	zero,1024(a4) # 20000400 <__freertos_irq_stack_top+0xfffc400>
  cc:	00078023          	sb	zero,0(a5)
  d0:	00100d93          	li	s11,1
  d4:	00000513          	li	a0,0
  d8:	00008067          	ret

000000dc <trap_entry>:
  dc:	f8010113          	addi	sp,sp,-128
  e0:	00112223          	sw	ra,4(sp)
  e4:	00212423          	sw	sp,8(sp)
  e8:	00312623          	sw	gp,12(sp)
  ec:	00412823          	sw	tp,16(sp)
  f0:	00512a23          	sw	t0,20(sp)
  f4:	00612c23          	sw	t1,24(sp)
  f8:	00712e23          	sw	t2,28(sp)
  fc:	02812023          	sw	s0,32(sp)
 100:	02912223          	sw	s1,36(sp)
 104:	02a12423          	sw	a0,40(sp)
 108:	02b12623          	sw	a1,44(sp)
 10c:	02c12823          	sw	a2,48(sp)
 110:	02d12a23          	sw	a3,52(sp)
 114:	02e12c23          	sw	a4,56(sp)
 118:	02f12e23          	sw	a5,60(sp)
 11c:	05012023          	sw	a6,64(sp)
 120:	05112223          	sw	a7,68(sp)
 124:	05212423          	sw	s2,72(sp)
 128:	05312623          	sw	s3,76(sp)
 12c:	05412823          	sw	s4,80(sp)
 130:	05512a23          	sw	s5,84(sp)
 134:	05612c23          	sw	s6,88(sp)
 138:	05712e23          	sw	s7,92(sp)
 13c:	07812023          	sw	s8,96(sp)
 140:	07912223          	sw	s9,100(sp)
 144:	07c12823          	sw	t3,112(sp)
 148:	07d12a23          	sw	t4,116(sp)
 14c:	07e12c23          	sw	t5,120(sp)
 150:	07f12e23          	sw	t6,124(sp)
 154:	34202573          	csrr	a0,mcause
 158:	0d8000ef          	jal	ra,230 <trap_handler>
 15c:	00412083          	lw	ra,4(sp)
 160:	00812103          	lw	sp,8(sp)
 164:	00c12183          	lw	gp,12(sp)
 168:	01012203          	lw	tp,16(sp)
 16c:	01412283          	lw	t0,20(sp)
 170:	01812303          	lw	t1,24(sp)
 174:	01c12383          	lw	t2,28(sp)
 178:	02012403          	lw	s0,32(sp)
 17c:	02412483          	lw	s1,36(sp)
 180:	02812503          	lw	a0,40(sp)
 184:	02c12583          	lw	a1,44(sp)
 188:	03012603          	lw	a2,48(sp)
 18c:	03412683          	lw	a3,52(sp)
 190:	03812703          	lw	a4,56(sp)
 194:	03c12783          	lw	a5,60(sp)
 198:	04012803          	lw	a6,64(sp)
 19c:	04412883          	lw	a7,68(sp)
 1a0:	04812903          	lw	s2,72(sp)
 1a4:	04c12983          	lw	s3,76(sp)
 1a8:	05012a03          	lw	s4,80(sp)
 1ac:	05412a83          	lw	s5,84(sp)
 1b0:	05812b03          	lw	s6,88(sp)
 1b4:	05c12b83          	lw	s7,92(sp)
 1b8:	06012c03          	lw	s8,96(sp)
 1bc:	06412c83          	lw	s9,100(sp)
 1c0:	07012e03          	lw	t3,112(sp)
 1c4:	07412e83          	lw	t4,116(sp)
 1c8:	07812f03          	lw	t5,120(sp)
 1cc:	07c12f83          	lw	t6,124(sp)
 1d0:	08010113          	addi	sp,sp,128
 1d4:	30200073          	mret
 1d8:	0000006f          	j	1d8 <trap_entry+0xfc>

000001dc <timer0_irq_handler>:
 1dc:	80418793          	addi	a5,gp,-2044 # 10000004 <seed>
 1e0:	0007a703          	lw	a4,0(a5)
 1e4:	590286b7          	lui	a3,0x59028
 1e8:	38168693          	addi	a3,a3,897 # 59028381 <__freertos_irq_stack_top+0x49024381>
 1ec:	00d74733          	xor	a4,a4,a3
 1f0:	00e7a023          	sw	a4,0(a5)
 1f4:	0007a703          	lw	a4,0(a5)
 1f8:	200027b7          	lui	a5,0x20002
 1fc:	00e7a223          	sw	a4,4(a5) # 20002004 <__freertos_irq_stack_top+0xfffe004>
 200:	00300713          	li	a4,3
 204:	00e7a023          	sw	a4,0(a5)
 208:	200007b7          	lui	a5,0x20000
 20c:	10300713          	li	a4,259
 210:	40e7a023          	sw	a4,1024(a5) # 20000400 <__freertos_irq_stack_top+0xfffc400>
 214:	10000737          	lui	a4,0x10000
 218:	00070713          	mv	a4,a4
 21c:	00074783          	lbu	a5,0(a4) # 10000000 <_data>
 220:	00178793          	addi	a5,a5,1
 224:	0ff7f793          	andi	a5,a5,255
 228:	00f70023          	sb	a5,0(a4)
 22c:	00008067          	ret

00000230 <trap_handler>:
 230:	fadff06f          	j	1dc <timer0_irq_handler>

00000234 <_init>:
 234:	000007b7          	lui	a5,0x0
 238:	0dc78793          	addi	a5,a5,220 # dc <trap_entry>
 23c:	30579073          	csrw	mtvec,a5
 240:	000027b7          	lui	a5,0x2
 244:	88878793          	addi	a5,a5,-1912 # 1888 <_data_lma+0x1638>
 248:	30079073          	csrw	mstatus,a5
 24c:	00008067          	ret
